; Function Attrs: nounwind uwtable
define ptr @l_Lake_expandOptType___boxed(ptr noundef %0, ptr noundef %1) local_unnamed_addr #0 {
  %3 = tail call zeroext i8 @l_Lean_Syntax_isNone(ptr noundef %1) #5
  %4 = icmp eq i8 %3, 0
  br i1 %4, label %5, label %17

5:                                                ; preds = %2
  %6 = tail call ptr @l_Lean_Syntax_getArg(ptr noundef %1, ptr noundef nonnull inttoptr (i64 1 to ptr)) #5
  %7 = tail call ptr @l_Lean_Syntax_getArg(ptr noundef %6, ptr noundef nonnull inttoptr (i64 3 to ptr)) #5
  %8 = ptrtoint ptr %6 to i64
  %9 = and i64 %8, 1
  %.not.i8 = icmp eq i64 %9, 0
  br i1 %.not.i8, label %10, label %l_Lake_expandOptType.exit

10:                                               ; preds = %5
  %11 = load i32, ptr %6, align 4, !tbaa !4
  %12 = icmp sgt i32 %11, 1
  br i1 %12, label %13, label %15, !prof !9

13:                                               ; preds = %10
  %14 = add nsw i32 %11, -1
  store i32 %14, ptr %6, align 4, !tbaa !4
  br label %l_Lake_expandOptType.exit

15:                                               ; preds = %10
  %.not.i.i = icmp eq i32 %11, 0
  br i1 %.not.i.i, label %l_Lake_expandOptType.exit, label %16

16:                                               ; preds = %15
  tail call void @lean_dec_ref_cold(ptr noundef nonnull %6) #5
  br label %l_Lake_expandOptType.exit

17:                                               ; preds = %2
  %18 = tail call ptr @l_Lake_mkHoleFrom(ptr noundef %0)
  br label %l_Lake_expandOptType.exit

l_Lake_expandOptType.exit:                        ; preds = %5, %13, %15, %16, %17
  %.0.i = phi ptr [ %18, %17 ], [ %7, %16 ], [ %7, %15 ], [ %7, %13 ], [ %7, %5 ]
  %19 = ptrtoint ptr %1 to i64
  %20 = and i64 %19, 1
  %.not = icmp eq i64 %20, 0
  br i1 %.not, label %21, label %lean_dec.exit5

21:                                               ; preds = %l_Lake_expandOptType.exit
  %22 = load i32, ptr %1, align 4, !tbaa !4
  %23 = icmp sgt i32 %22, 1
  br i1 %23, label %24, label %26, !prof !9

24:                                               ; preds = %21
  %25 = add nsw i32 %22, -1
  store i32 %25, ptr %1, align 4, !tbaa !4
  br label %lean_dec.exit5

26:                                               ; preds = %21
  %.not.i = icmp eq i32 %22, 0
  br i1 %.not.i, label %lean_dec.exit5, label %27

27:                                               ; preds = %26
  tail call void @lean_dec_ref_cold(ptr noundef nonnull %1) #5
  br label %lean_dec.exit5

lean_dec.exit5:                                   ; preds = %27, %26, %24, %l_Lake_expandOptType.exit
  %28 = ptrtoint ptr %0 to i64
  %29 = and i64 %28, 1
  %.not9 = icmp eq i64 %29, 0
  br i1 %.not9, label %30, label %lean_dec.exit

30:                                               ; preds = %lean_dec.exit5
  %31 = load i32, ptr %0, align 4, !tbaa !4
  %32 = icmp sgt i32 %31, 1
  br i1 %32, label %33, label %35, !prof !9

33:                                               ; preds = %30
  %34 = add nsw i32 %31, -1
  store i32 %34, ptr %0, align 4, !tbaa !4
  br label %lean_dec.exit

35:                                               ; preds = %30
  %.not.i6 = icmp eq i32 %31, 0
  br i1 %.not.i6, label %lean_dec.exit, label %36

36:                                               ; preds = %35
  tail call void @lean_dec_ref_cold(ptr noundef nonnull %0) #5
  br label %lean_dec.exit

lean_dec.exit:                                    ; preds = %36, %35, %33, %lean_dec.exit5
  ret ptr %.0.i
}